target datalayout = "e-m:e-p270:32:32-p271:32:32-p272:64:64-i64:64-i128:128-f80:128-n8:16:32:64-S128"
target triple = "x86_64-unknown-linux-gnu"

%"class.icu_75::MaybeStackArray" = type <{ ptr, i32, i8, [40 x i8], [3 x i8] }>
%"class.icu_75::MeasureUnit" = type <{ %"class.icu_75::UObject", ptr, i16, i8, [5 x i8] }>
%"class.icu_75::UObject" = type { ptr }
%"class.icu_75::MeasureUnitImpl" = type { i32, %"class.icu_75::MaybeStackVector", %"class.icu_75::CharString" }
%"class.icu_75::MaybeStackVector" = type { %"class.icu_75::MemoryPool" }
%"class.icu_75::MemoryPool" = type { i32, %"class.icu_75::MaybeStackArray.0" }
%"class.icu_75::MaybeStackArray.0" = type { ptr, i32, i8, [8 x ptr] }
%"class.icu_75::CharString" = type { %"class.icu_75::MaybeStackArray", i32, [4 x i8] }

@_ZN6icu_75L8gOffsetsE = internal constant [24 x i32] [i32 0, i32 2, i32 7, i32 17, i32 27, i32 31, i32 332, i32 343, i32 360, i32 364, i32 373, i32 376, i32 380, i32 388, i32 410, i32 414, i32 429, i32 430, i32 436, i32 447, i32 452, i32 456, i32 458, i32 492], align 16
@_ZN6icu_7515MaybeStackArrayIcLi40EED1Ev = weak_odr unnamed_addr alias void (ptr), ptr @_ZN6icu_7515MaybeStackArrayIcLi40EED2Ev

; Function Attrs: mustprogress uwtable
define linkonce_odr void @_ZN6icu_7515MaybeStackArrayIPNS_14SingleUnitImplELi8EE12releaseArrayEv(ptr noundef nonnull align 8 dereferenceable(80) %this) #1 comdat align 2 {
entry:
  %this.addr = alloca ptr, align 8
  store ptr %this, ptr %this.addr, align 8
  %this1 = load ptr, ptr %this.addr, align 8
  %needToRelease = getelementptr inbounds %"class.icu_75::MaybeStackArray.0", ptr %this1, i32 0, i32 2
  %0 = load i8, ptr %needToRelease, align 4
  %tobool = icmp ne i8 %0, 0
  br i1 %tobool, label %if.then, label %if.end

if.then:                                          ; preds = %entry
  %ptr = getelementptr inbounds %"class.icu_75::MaybeStackArray.0", ptr %this1, i32 0, i32 0
  %1 = load ptr, ptr %ptr, align 8
  call void @uprv_free_75(ptr noundef %1)
  br label %if.end

if.end:                                           ; preds = %if.then, %entry
  ret void
}

; Function Attrs: mustprogress nounwind uwtable
define linkonce_odr void @_ZN6icu_7515MaybeStackArrayIPNS_14SingleUnitImplELi8EED2Ev(ptr noundef nonnull align 8 dereferenceable(80) %this) unnamed_addr #0 comdat align 2 personality ptr @__gxx_personality_v0 {
entry:
  %this.addr = alloca ptr, align 8
  store ptr %this, ptr %this.addr, align 8
  %this1 = load ptr, ptr %this.addr, align 8
  invoke void @_ZN6icu_7515MaybeStackArrayIPNS_14SingleUnitImplELi8EE12releaseArrayEv(ptr noundef nonnull align 8 dereferenceable(80) %this1)
          to label %invoke.cont unwind label %terminate.lpad

invoke.cont:                                      ; preds = %entry
  ret void

terminate.lpad:                                   ; preds = %entry
  %0 = landingpad { ptr, i32 }
          catch ptr null
  %1 = extractvalue { ptr, i32 } %0, 0
  call void @__clang_call_terminate(ptr %1) #10
  unreachable
}

; Function Attrs: mustprogress nounwind uwtable
define linkonce_odr noundef nonnull align 8 dereferenceable(8) ptr @_ZN6icu_7515MaybeStackArrayIPNS_14SingleUnitImplELi8EEixEl(ptr noundef nonnull align 8 dereferenceable(80) %this, i64 noundef %i) #0 comdat align 2 {
entry:
  %this.addr = alloca ptr, align 8
  %i.addr = alloca i64, align 8
  store ptr %this, ptr %this.addr, align 8
  store i64 %i, ptr %i.addr, align 8
  %this1 = load ptr, ptr %this.addr, align 8
  %ptr = getelementptr inbounds %"class.icu_75::MaybeStackArray.0", ptr %this1, i32 0, i32 0
  %0 = load ptr, ptr %ptr, align 8
  %1 = load i64, ptr %i.addr, align 8
  %arrayidx = getelementptr inbounds ptr, ptr %0, i64 %1
  ret ptr %arrayidx
}

; Function Attrs: mustprogress nounwind uwtable
define linkonce_odr void @_ZN6icu_7510MemoryPoolINS_14SingleUnitImplELi8EED2Ev(ptr noundef nonnull align 8 dereferenceable(88) %this) unnamed_addr #0 comdat align 2 personality ptr @__gxx_personality_v0 {
entry:
  %this.addr = alloca ptr, align 8
  %i = alloca i32, align 4
  store ptr %this, ptr %this.addr, align 8
  %this1 = load ptr, ptr %this.addr, align 8
  store i32 0, ptr %i, align 4
  br label %for.cond

for.cond:                                         ; preds = %for.inc, %entry
  %0 = load i32, ptr %i, align 4
  %fCount = getelementptr inbounds %"class.icu_75::MemoryPool", ptr %this1, i32 0, i32 0
  %1 = load i32, ptr %fCount, align 8
  %cmp = icmp slt i32 %0, %1
  br i1 %cmp, label %for.body, label %for.end

for.body:                                         ; preds = %for.cond
  %fPool = getelementptr inbounds %"class.icu_75::MemoryPool", ptr %this1, i32 0, i32 1
  %2 = load i32, ptr %i, align 4
  %conv = sext i32 %2 to i64
  %call = invoke noundef nonnull align 8 dereferenceable(8) ptr @_ZN6icu_7515MaybeStackArrayIPNS_14SingleUnitImplELi8EEixEl(ptr noundef nonnull align 8 dereferenceable(80) %fPool, i64 noundef %conv)
          to label %invoke.cont unwind label %terminate.lpad

invoke.cont:                                      ; preds = %for.body
  %3 = load ptr, ptr %call, align 8
  %isnull = icmp eq ptr %3, null
  br i1 %isnull, label %delete.end, label %delete.notnull

delete.notnull:                                   ; preds = %invoke.cont
  call void @_ZN6icu_757UMemorydlEPv(ptr noundef %3) #8
  br label %delete.end

delete.end:                                       ; preds = %delete.notnull, %invoke.cont
  br label %for.inc

for.inc:                                          ; preds = %delete.end
  %4 = load i32, ptr %i, align 4
  %inc = add nsw i32 %4, 1
  store i32 %inc, ptr %i, align 4
  br label %for.cond, !llvm.loop !11

for.end:                                          ; preds = %for.cond
  %fPool2 = getelementptr inbounds %"class.icu_75::MemoryPool", ptr %this1, i32 0, i32 1
  call void @_ZN6icu_7515MaybeStackArrayIPNS_14SingleUnitImplELi8EED2Ev(ptr noundef nonnull align 8 dereferenceable(80) %fPool2) #8
  ret void

terminate.lpad:                                   ; preds = %for.body
  %5 = landingpad { ptr, i32 }
          catch ptr null
  %6 = extractvalue { ptr, i32 } %5, 0
  call void @__clang_call_terminate(ptr %6) #10
  unreachable
}

; Function Attrs: mustprogress nounwind uwtable
define linkonce_odr void @_ZN6icu_7516MaybeStackVectorINS_14SingleUnitImplELi8EED2Ev(ptr noundef nonnull align 8 dereferenceable(88) %this) unnamed_addr #0 comdat align 2 {
entry:
  %this.addr = alloca ptr, align 8
  store ptr %this, ptr %this.addr, align 8
  %this1 = load ptr, ptr %this.addr, align 8
  call void @_ZN6icu_7510MemoryPoolINS_14SingleUnitImplELi8EED2Ev(ptr noundef nonnull align 8 dereferenceable(88) %this1) #8
  ret void
}

; Function Attrs: mustprogress nounwind uwtable
define linkonce_odr void @_ZN6icu_7510CharStringD2Ev(ptr noundef nonnull align 8 dereferenceable(60) %this) unnamed_addr #0 comdat align 2 {
entry:
  %this.addr = alloca ptr, align 8
  store ptr %this, ptr %this.addr, align 8
  %this1 = load ptr, ptr %this.addr, align 8
  %buffer = getelementptr inbounds %"class.icu_75::CharString", ptr %this1, i32 0, i32 0
  call void @_ZN6icu_7515MaybeStackArrayIcLi40EED1Ev(ptr noundef nonnull align 8 dereferenceable(53) %buffer) #8
  ret void
}

; Function Attrs: mustprogress nounwind uwtable
define linkonce_odr void @_ZN6icu_7515MeasureUnitImplD2Ev(ptr noundef nonnull align 8 dereferenceable(160) %this) unnamed_addr #0 comdat align 2 {
entry:
  %this.addr = alloca ptr, align 8
  store ptr %this, ptr %this.addr, align 8
  %this1 = load ptr, ptr %this.addr, align 8
  %identifier = getelementptr inbounds %"class.icu_75::MeasureUnitImpl", ptr %this1, i32 0, i32 2
  call void @_ZN6icu_7510CharStringD2Ev(ptr noundef nonnull align 8 dereferenceable(60) %identifier) #8
  %singleUnits = getelementptr inbounds %"class.icu_75::MeasureUnitImpl", ptr %this1, i32 0, i32 1
  call void @_ZN6icu_7516MaybeStackVectorINS_14SingleUnitImplELi8EED2Ev(ptr noundef nonnull align 8 dereferenceable(88) %singleUnits) #8
  ret void
}

; Function Attrs: mustprogress nounwind uwtable
define void @_ZN6icu_7511MeasureUnit5setToEii(ptr noundef nonnull align 8 dereferenceable(19) %this, i32 noundef %typeId, i32 noundef %subTypeId) #0 align 2 {
entry:
  %this.addr = alloca ptr, align 8
  %typeId.addr = alloca i32, align 4
  %subTypeId.addr = alloca i32, align 4
  store ptr %this, ptr %this.addr, align 8
  store i32 %typeId, ptr %typeId.addr, align 4
  store i32 %subTypeId, ptr %subTypeId.addr, align 4
  %this1 = load ptr, ptr %this.addr, align 8
  %0 = load i32, ptr %typeId.addr, align 4
  %conv = trunc i32 %0 to i8
  %fTypeId = getelementptr inbounds %"class.icu_75::MeasureUnit", ptr %this1, i32 0, i32 3
  store i8 %conv, ptr %fTypeId, align 2
  %1 = load i32, ptr %subTypeId.addr, align 4
  %conv2 = trunc i32 %1 to i16
  %fSubTypeId = getelementptr inbounds %"class.icu_75::MeasureUnit", ptr %this1, i32 0, i32 2
  store i16 %conv2, ptr %fSubTypeId, align 8
  %fImpl = getelementptr inbounds %"class.icu_75::MeasureUnit", ptr %this1, i32 0, i32 1
  %2 = load ptr, ptr %fImpl, align 8
  %cmp = icmp ne ptr %2, null
  br i1 %cmp, label %if.then, label %if.end

if.then:                                          ; preds = %entry
  %fImpl3 = getelementptr inbounds %"class.icu_75::MeasureUnit", ptr %this1, i32 0, i32 1
  %3 = load ptr, ptr %fImpl3, align 8
  %isnull = icmp eq ptr %3, null
  br i1 %isnull, label %delete.end, label %delete.notnull

delete.notnull:                                   ; preds = %if.then
  call void @_ZN6icu_7515MeasureUnitImplD2Ev(ptr noundef nonnull align 8 dereferenceable(160) %3) #8
  call void @_ZN6icu_757UMemorydlEPv(ptr noundef %3) #8
  br label %delete.end

delete.end:                                       ; preds = %delete.notnull, %if.then
  %fImpl4 = getelementptr inbounds %"class.icu_75::MeasureUnit", ptr %this1, i32 0, i32 1
  store ptr null, ptr %fImpl4, align 8
  br label %if.end

if.end:                                           ; preds = %delete.end, %entry
  ret void
}

; Function Attrs: mustprogress nounwind uwtable
define internal noundef signext i8 @_ZL9U_FAILURE10UErrorCode(i32 noundef %code) #0 {
entry:
  %code.addr = alloca i32, align 4
  store i32 %code, ptr %code.addr, align 4
  %0 = load i32, ptr %code.addr, align 4
  %cmp = icmp sgt i32 %0, 0
  %conv = zext i1 %cmp to i8
  ret i8 %conv
}

; Function Attrs: mustprogress uwtable
define noundef i32 @_ZN6icu_7511MeasureUnit12getAvailableEPS0_iR10UErrorCode(ptr noundef %dest, i32 noundef %destCapacity, ptr noundef nonnull align 4 dereferenceable(4) %errorCode) #1 align 2 {
entry:
  %retval = alloca i32, align 4
  %dest.addr = alloca ptr, align 8
  %destCapacity.addr = alloca i32, align 4
  %errorCode.addr = alloca ptr, align 8
  %idx = alloca i32, align 4
  %typeIdx = alloca i32, align 4
  %len = alloca i32, align 4
  %subTypeIdx = alloca i32, align 4
  store ptr %dest, ptr %dest.addr, align 8
  store i32 %destCapacity, ptr %destCapacity.addr, align 4
  store ptr %errorCode, ptr %errorCode.addr, align 8
  %0 = load ptr, ptr %errorCode.addr, align 8
  %1 = load i32, ptr %0, align 4
  %call = call noundef signext i8 @_ZL9U_FAILURE10UErrorCode(i32 noundef %1)
  %tobool = icmp ne i8 %call, 0
  br i1 %tobool, label %if.then, label %if.end

if.then:                                          ; preds = %entry
  store i32 0, ptr %retval, align 4
  br label %return

if.end:                                           ; preds = %entry
  %2 = load i32, ptr %destCapacity.addr, align 4
  %cmp = icmp slt i32 %2, 492
  br i1 %cmp, label %if.then1, label %if.end2

if.then1:                                         ; preds = %if.end
  %3 = load ptr, ptr %errorCode.addr, align 8
  store i32 15, ptr %3, align 4
  store i32 492, ptr %retval, align 4
  br label %return

if.end2:                                          ; preds = %if.end
  store i32 0, ptr %idx, align 4
  store i32 0, ptr %typeIdx, align 4
  br label %for.cond

for.cond:                                         ; preds = %for.inc12, %if.end2
  %4 = load i32, ptr %typeIdx, align 4
  %cmp3 = icmp slt i32 %4, 23
  br i1 %cmp3, label %for.body, label %for.end14

for.body:                                         ; preds = %for.cond
  %5 = load i32, ptr %typeIdx, align 4
  %add = add nsw i32 %5, 1
  %idxprom = sext i32 %add to i64
  %arrayidx = getelementptr inbounds [24 x i32], ptr @_ZN6icu_75L8gOffsetsE, i64 0, i64 %idxprom
  %6 = load i32, ptr %arrayidx, align 4
  %7 = load i32, ptr %typeIdx, align 4
  %idxprom4 = sext i32 %7 to i64
  %arrayidx5 = getelementptr inbounds [24 x i32], ptr @_ZN6icu_75L8gOffsetsE, i64 0, i64 %idxprom4
  %8 = load i32, ptr %arrayidx5, align 4
  %sub = sub nsw i32 %6, %8
  store i32 %sub, ptr %len, align 4
  store i32 0, ptr %subTypeIdx, align 4
  br label %for.cond6

for.cond6:                                        ; preds = %for.inc, %for.body
  %9 = load i32, ptr %subTypeIdx, align 4
  %10 = load i32, ptr %len, align 4
  %cmp7 = icmp slt i32 %9, %10
  br i1 %cmp7, label %for.body8, label %for.end

for.body8:                                        ; preds = %for.cond6
  %11 = load ptr, ptr %dest.addr, align 8
  %12 = load i32, ptr %idx, align 4
  %idxprom9 = sext i32 %12 to i64
  %arrayidx10 = getelementptr inbounds %"class.icu_75::MeasureUnit", ptr %11, i64 %idxprom9
  %13 = load i32, ptr %typeIdx, align 4
  %14 = load i32, ptr %subTypeIdx, align 4
  call void @_ZN6icu_7511MeasureUnit5setToEii(ptr noundef nonnull align 8 dereferenceable(19) %arrayidx10, i32 noundef %13, i32 noundef %14)
  %15 = load i32, ptr %idx, align 4
  %inc = add nsw i32 %15, 1
  store i32 %inc, ptr %idx, align 4
  br label %for.inc

for.inc:                                          ; preds = %for.body8
  %16 = load i32, ptr %subTypeIdx, align 4
  %inc11 = add nsw i32 %16, 1
  store i32 %inc11, ptr %subTypeIdx, align 4
  br label %for.cond6, !llvm.loop !7

for.end:                                          ; preds = %for.cond6
  br label %for.inc12

for.inc12:                                        ; preds = %for.end
  %17 = load i32, ptr %typeIdx, align 4
  %inc13 = add nsw i32 %17, 1
  store i32 %inc13, ptr %typeIdx, align 4
  br label %for.cond, !llvm.loop !8

for.end14:                                        ; preds = %for.cond
  store i32 492, ptr %retval, align 4
  br label %return

return:                                           ; preds = %for.end14, %if.then1, %if.then
  %18 = load i32, ptr %retval, align 4
  ret i32 %18
}