; Function Attrs: mustprogress uwtable
define noundef i32 @_ZN6icu_7511MeasureUnit12getAvailableEPS0_iR10UErrorCode(ptr nocapture noundef %dest, i32 noundef %destCapacity, ptr nocapture noundef nonnull align 4 dereferenceable(4) %errorCode) local_unnamed_addr #1 align 2 personality ptr @__gxx_personality_v0 {
entry:
  %0 = load i32, ptr %errorCode, align 4
  %cmp.i = icmp slt i32 %0, 1
  br i1 %cmp.i, label %if.end, label %return

if.end:                                           ; preds = %entry
  %cmp = icmp slt i32 %destCapacity, 492
  br i1 %cmp, label %if.then1, label %for.body

if.then1:                                         ; preds = %if.end
  store i32 15, ptr %errorCode, align 4
  br label %return

for.cond.loopexit.loopexit:                       ; preds = %_ZN6icu_7511MeasureUnit5setToEii.exit
  %1 = trunc i64 %indvars.iv.next to i32
  br label %for.cond.loopexit

for.cond.loopexit:                                ; preds = %for.cond.loopexit.loopexit, %for.body
  %idx.1.lcssa = phi i32 [ %idx.014, %for.body ], [ %1, %for.cond.loopexit.loopexit ]
  %exitcond20.not = icmp eq i64 %indvars.iv.next18, 23
  br i1 %exitcond20.not, label %return, label %for.body, !llvm.loop !9

for.body:                                         ; preds = %if.end, %for.cond.loopexit
  %2 = phi i32 [ %3, %for.cond.loopexit ], [ 0, %if.end ]
  %indvars.iv17 = phi i64 [ %indvars.iv.next18, %for.cond.loopexit ], [ 0, %if.end ]
  %idx.014 = phi i32 [ %idx.1.lcssa, %for.cond.loopexit ], [ 0, %if.end ]
  %indvars.iv.next18 = add nuw nsw i64 %indvars.iv17, 1
  %arrayidx = getelementptr inbounds [24 x i32], ptr @_ZN6icu_75L8gOffsetsE, i64 0, i64 %indvars.iv.next18
  %3 = load i32, ptr %arrayidx, align 4
  %sub = sub nsw i32 %3, %2
  %cmp711 = icmp sgt i32 %sub, 0
  br i1 %cmp711, label %for.body8.lr.ph, label %for.cond.loopexit

for.body8.lr.ph:                                  ; preds = %for.body
  %conv.i9 = trunc i64 %indvars.iv17 to i8
  %4 = sext i32 %idx.014 to i64
  br label %for.body8

for.body8:                                        ; preds = %for.body8.lr.ph, %_ZN6icu_7511MeasureUnit5setToEii.exit
  %indvars.iv = phi i64 [ %4, %for.body8.lr.ph ], [ %indvars.iv.next, %_ZN6icu_7511MeasureUnit5setToEii.exit ]
  %subTypeIdx.013 = phi i32 [ 0, %for.body8.lr.ph ], [ %inc11, %_ZN6icu_7511MeasureUnit5setToEii.exit ]
  %arrayidx10 = getelementptr inbounds %"class.icu_75::MeasureUnit", ptr %dest, i64 %indvars.iv
  %fTypeId.i = getelementptr inbounds i8, ptr %arrayidx10, i64 18
  store i8 %conv.i9, ptr %fTypeId.i, align 2
  %conv2.i = trunc i32 %subTypeIdx.013 to i16
  %fSubTypeId.i = getelementptr inbounds i8, ptr %arrayidx10, i64 16
  store i16 %conv2.i, ptr %fSubTypeId.i, align 8
  %fImpl.i = getelementptr inbounds i8, ptr %arrayidx10, i64 8
  %5 = load ptr, ptr %fImpl.i, align 8
  %cmp.not.i = icmp eq ptr %5, null
  br i1 %cmp.not.i, label %_ZN6icu_7511MeasureUnit5setToEii.exit, label %delete.notnull.i

delete.notnull.i:                                 ; preds = %for.body8
  %identifier.i.i = getelementptr inbounds i8, ptr %5, i64 96
  tail call void @_ZN6icu_7515MaybeStackArrayIcLi40EED1Ev(ptr noundef nonnull align 8 dereferenceable(53) %identifier.i.i) #17
  %singleUnits.i.i = getelementptr inbounds i8, ptr %5, i64 8
  %6 = load i32, ptr %singleUnits.i.i, align 8
  %cmp3.i.i.i.i = icmp sgt i32 %6, 0
  br i1 %cmp3.i.i.i.i, label %for.body.lr.ph.i.i.i.i, label %for.end.i.i.i.i

for.body.lr.ph.i.i.i.i:                           ; preds = %delete.notnull.i
  %fPool.i.i.i.i = getelementptr inbounds i8, ptr %5, i64 16
  br label %for.body.i.i.i.i

for.body.i.i.i.i:                                 ; preds = %for.inc.i.i.i.i, %for.body.lr.ph.i.i.i.i
  %7 = phi i32 [ %6, %for.body.lr.ph.i.i.i.i ], [ %10, %for.inc.i.i.i.i ]
  %indvars.iv.i.i.i.i = phi i64 [ 0, %for.body.lr.ph.i.i.i.i ], [ %indvars.iv.next.i.i.i.i, %for.inc.i.i.i.i ]
  %8 = load ptr, ptr %fPool.i.i.i.i, align 8
  %arrayidx.i.i.i.i.i = getelementptr inbounds ptr, ptr %8, i64 %indvars.iv.i.i.i.i
  %9 = load ptr, ptr %arrayidx.i.i.i.i.i, align 8
  %isnull.i.i.i.i = icmp eq ptr %9, null
  br i1 %isnull.i.i.i.i, label %for.inc.i.i.i.i, label %delete.notnull.i.i.i.i

delete.notnull.i.i.i.i:                           ; preds = %for.body.i.i.i.i
  tail call void @_ZN6icu_757UMemorydlEPv(ptr noundef nonnull %9) #17
  %.pre.i.i.i.i = load i32, ptr %singleUnits.i.i, align 8
  br label %for.inc.i.i.i.i

for.inc.i.i.i.i:                                  ; preds = %delete.notnull.i.i.i.i, %for.body.i.i.i.i
  %10 = phi i32 [ %7, %for.body.i.i.i.i ], [ %.pre.i.i.i.i, %delete.notnull.i.i.i.i ]
  %indvars.iv.next.i.i.i.i = add nuw nsw i64 %indvars.iv.i.i.i.i, 1
  %11 = sext i32 %10 to i64
  %cmp.i.i.i.i = icmp slt i64 %indvars.iv.next.i.i.i.i, %11
  br i1 %cmp.i.i.i.i, label %for.body.i.i.i.i, label %for.end.i.i.i.i, !llvm.loop !4

for.end.i.i.i.i:                                  ; preds = %for.inc.i.i.i.i, %delete.notnull.i
  %needToRelease.i.i.i.i.i.i = getelementptr inbounds i8, ptr %5, i64 28
  %12 = load i8, ptr %needToRelease.i.i.i.i.i.i, align 4
  %tobool.not.i.i.i.i.i.i = icmp eq i8 %12, 0
  br i1 %tobool.not.i.i.i.i.i.i, label %_ZN6icu_7515MeasureUnitImplD2Ev.exit.i, label %if.then.i.i.i.i.i.i

if.then.i.i.i.i.i.i:                              ; preds = %for.end.i.i.i.i
  %fPool2.i.i.i.i = getelementptr inbounds i8, ptr %5, i64 16
  %13 = load ptr, ptr %fPool2.i.i.i.i, align 8
  invoke void @uprv_free_75(ptr noundef %13)
          to label %_ZN6icu_7515MeasureUnitImplD2Ev.exit.i unwind label %terminate.lpad.i.i.i.i.i

terminate.lpad.i.i.i.i.i:                         ; preds = %if.then.i.i.i.i.i.i
  %14 = landingpad { ptr, i32 }
          catch ptr null
  %15 = extractvalue { ptr, i32 } %14, 0
  tail call void @__clang_call_terminate(ptr %15) #19
  unreachable

_ZN6icu_7515MeasureUnitImplD2Ev.exit.i:           ; preds = %if.then.i.i.i.i.i.i, %for.end.i.i.i.i
  tail call void @_ZN6icu_757UMemorydlEPv(ptr noundef nonnull %5) #17
  store ptr null, ptr %fImpl.i, align 8
  br label %_ZN6icu_7511MeasureUnit5setToEii.exit

_ZN6icu_7511MeasureUnit5setToEii.exit:            ; preds = %for.body8, %_ZN6icu_7515MeasureUnitImplD2Ev.exit.i
  %indvars.iv.next = add nsw i64 %indvars.iv, 1
  %inc11 = add nuw nsw i32 %subTypeIdx.013, 1
  %exitcond.not = icmp eq i32 %inc11, %sub
  br i1 %exitcond.not, label %for.cond.loopexit.loopexit, label %for.body8, !llvm.loop !10

return:                                           ; preds = %for.cond.loopexit, %entry, %if.then1
  %retval.0 = phi i32 [ 492, %if.then1 ], [ 0, %entry ], [ 492, %for.cond.loopexit ]
  ret i32 %retval.0
}